target datalayout = "e-m:e-p270:32:32-p271:32:32-p272:64:64-i64:64-i128:128-f80:128-n8:16:32:64-S128"
target triple = "x86_64-pc-linux-gnu"

%struct._object = type { %union.anon, ptr }
%union.anon = type { i64 }
%struct._typeobject = type { %struct.PyVarObject, ptr, i64, i64, ptr, i64, ptr, ptr, ptr, ptr, ptr, ptr, ptr, ptr, ptr, ptr, ptr, ptr, ptr, i64, ptr, ptr, ptr, ptr, i64, ptr, ptr, ptr, ptr, ptr, ptr, ptr, ptr, ptr, i64, ptr, ptr, ptr, ptr, ptr, ptr, ptr, ptr, ptr, ptr, ptr, i32, ptr, ptr, i8, i16 }
%struct.PyVarObject = type { %struct._object, i64 }
%struct.arraydescr = type { i8, i32, ptr, ptr, ptr, ptr, i32, i32 }
%struct.anon = type { i32, i32 }
%struct.arrayobject = type { %struct.PyVarObject, ptr, i64, ptr, ptr, i64 }

@.str.55 = private unnamed_addr constant [33 x i8] c"../cpython/Modules/arraymodule.c\00", align 1

; Function Attrs: alwaysinline nounwind uwtable
define internal i32 @_Py_IsImmortal(ptr noundef %0) #4 {
  %2 = alloca ptr, align 8
  store ptr %0, ptr %2, align 8, !tbaa !3
  %3 = load ptr, ptr %2, align 8, !tbaa !3
  %4 = getelementptr inbounds nuw %struct._object, ptr %3, i32 0, i32 0
  %5 = getelementptr inbounds nuw %struct.anon, ptr %4, i32 0, i32 0
  %6 = load i32, ptr %5, align 8, !tbaa !36
  %7 = icmp slt i32 %6, 0
  %8 = zext i1 %7 to i32
  ret i32 %8
}

; Function Attrs: alwaysinline nounwind uwtable
define internal void @Py_DECREF(ptr noundef %0) #4 {
  %2 = alloca ptr, align 8
  store ptr %0, ptr %2, align 8, !tbaa !3
  %3 = load ptr, ptr %2, align 8, !tbaa !3
  %4 = call i32 @_Py_IsImmortal(ptr noundef %3)
  %5 = icmp ne i32 %4, 0
  br i1 %5, label %6, label %7

6:                                                ; preds = %1
  br label %16

7:                                                ; preds = %1
  %8 = load ptr, ptr %2, align 8, !tbaa !3
  %9 = getelementptr inbounds nuw %struct._object, ptr %8, i32 0, i32 0
  %10 = getelementptr inbounds nuw %struct.anon, ptr %9, i32 0, i32 0
  %11 = load i32, ptr %10, align 8, !tbaa !36
  %12 = add i32 %11, -1
  store i32 %12, ptr %10, align 8, !tbaa !36
  %13 = icmp eq i32 %12, 0
  br i1 %13, label %14, label %16

14:                                               ; preds = %7
  %15 = load ptr, ptr %2, align 8, !tbaa !3
  call void @_Py_Dealloc(ptr noundef %15)
  br label %16

16:                                               ; preds = %6, %14, %7
  ret void
}

; Function Attrs: inlinehint nounwind uwtable
define internal void @Py_SET_SIZE(ptr noundef %0, i64 noundef %1) #3 {
  %3 = alloca ptr, align 8
  %4 = alloca i64, align 8
  store ptr %0, ptr %3, align 8, !tbaa !8
  store i64 %1, ptr %4, align 8, !tbaa !21
  %5 = load i64, ptr %4, align 8, !tbaa !21
  %6 = load ptr, ptr %3, align 8, !tbaa !8
  %7 = getelementptr inbounds nuw %struct.PyVarObject, ptr %6, i32 0, i32 1
  store i64 %5, ptr %7, align 8, !tbaa !62
  ret void
}

; Function Attrs: nounwind uwtable
define internal ptr @newarrayobject(ptr noundef %0, i64 noundef %1, ptr noundef %2) #0 {
  %4 = alloca ptr, align 8
  %5 = alloca ptr, align 8
  %6 = alloca i64, align 8
  %7 = alloca ptr, align 8
  %8 = alloca ptr, align 8
  %9 = alloca i64, align 8
  %10 = alloca i32, align 4
  store ptr %0, ptr %5, align 8, !tbaa !18
  store i64 %1, ptr %6, align 8, !tbaa !21
  store ptr %2, ptr %7, align 8, !tbaa !39
  call void @llvm.lifetime.start.p0(i64 8, ptr %8) #8
  call void @llvm.lifetime.start.p0(i64 8, ptr %9) #8
  %11 = load i64, ptr %6, align 8, !tbaa !21
  %12 = icmp slt i64 %11, 0
  br i1 %12, label %13, label %14

13:                                               ; preds = %3
  call void @_PyErr_BadInternalCall(ptr noundef @.str.55, i32 noundef 638)
  store ptr null, ptr %4, align 8
  store i32 1, ptr %10, align 4
  br label %79

14:                                               ; preds = %3
  %15 = load i64, ptr %6, align 8, !tbaa !21
  %16 = load ptr, ptr %7, align 8, !tbaa !39
  %17 = getelementptr inbounds nuw %struct.arraydescr, ptr %16, i32 0, i32 1
  %18 = load i32, ptr %17, align 4, !tbaa !52
  %19 = sext i32 %18 to i64
  %20 = sdiv i64 9223372036854775807, %19
  %21 = icmp sgt i64 %15, %20
  br i1 %21, label %22, label %24

22:                                               ; preds = %14
  %23 = call ptr @PyErr_NoMemory()
  store ptr %23, ptr %4, align 8
  store i32 1, ptr %10, align 4
  br label %79

24:                                               ; preds = %14
  %25 = load i64, ptr %6, align 8, !tbaa !21
  %26 = load ptr, ptr %7, align 8, !tbaa !39
  %27 = getelementptr inbounds nuw %struct.arraydescr, ptr %26, i32 0, i32 1
  %28 = load i32, ptr %27, align 4, !tbaa !52
  %29 = sext i32 %28 to i64
  %30 = mul i64 %25, %29
  store i64 %30, ptr %9, align 8, !tbaa !21
  %31 = load ptr, ptr %5, align 8, !tbaa !18
  %32 = getelementptr inbounds nuw %struct._typeobject, ptr %31, i32 0, i32 36
  %33 = load ptr, ptr %32, align 8, !tbaa !103
  %34 = load ptr, ptr %5, align 8, !tbaa !18
  %35 = call ptr %33(ptr noundef %34, i64 noundef 0)
  store ptr %35, ptr %8, align 8, !tbaa !68
  %36 = load ptr, ptr %8, align 8, !tbaa !68
  %37 = icmp eq ptr %36, null
  br i1 %37, label %38, label %39

38:                                               ; preds = %24
  store ptr null, ptr %4, align 8
  store i32 1, ptr %10, align 4
  br label %79

39:                                               ; preds = %24
  %40 = load ptr, ptr %7, align 8, !tbaa !39
  %41 = load ptr, ptr %8, align 8, !tbaa !68
  %42 = getelementptr inbounds nuw %struct.arrayobject, ptr %41, i32 0, i32 3
  store ptr %40, ptr %42, align 8, !tbaa !99
  %43 = load i64, ptr %6, align 8, !tbaa !21
  %44 = load ptr, ptr %8, align 8, !tbaa !68
  %45 = getelementptr inbounds nuw %struct.arrayobject, ptr %44, i32 0, i32 2
  store i64 %43, ptr %45, align 8, !tbaa !101
  %46 = load ptr, ptr %8, align 8, !tbaa !68
  %47 = getelementptr inbounds nuw %struct.arrayobject, ptr %46, i32 0, i32 4
  store ptr null, ptr %47, align 8, !tbaa !104
  %48 = load ptr, ptr %8, align 8, !tbaa !68
  %49 = load i64, ptr %6, align 8, !tbaa !21
  call void @Py_SET_SIZE(ptr noundef %48, i64 noundef %49)
  %50 = load i64, ptr %6, align 8, !tbaa !21
  %51 = icmp sle i64 %50, 0
  br i1 %51, label %52, label %55

52:                                               ; preds = %39
  %53 = load ptr, ptr %8, align 8, !tbaa !68
  %54 = getelementptr inbounds nuw %struct.arrayobject, ptr %53, i32 0, i32 1
  store ptr null, ptr %54, align 8, !tbaa !70
  br label %75

55:                                               ; preds = %39
  %56 = load i64, ptr %9, align 8, !tbaa !21
  %57 = icmp ugt i64 %56, 9223372036854775807
  br i1 %57, label %58, label %59

58:                                               ; preds = %55
  br label %63

59:                                               ; preds = %55
  %60 = load i64, ptr %9, align 8, !tbaa !21
  %61 = mul i64 %60, 1
  %62 = call ptr @PyMem_Malloc(i64 noundef %61)
  br label %63

63:                                               ; preds = %59, %58
  %64 = phi ptr [ null, %58 ], [ %62, %59 ]
  %65 = load ptr, ptr %8, align 8, !tbaa !68
  %66 = getelementptr inbounds nuw %struct.arrayobject, ptr %65, i32 0, i32 1
  store ptr %64, ptr %66, align 8, !tbaa !70
  %67 = load ptr, ptr %8, align 8, !tbaa !68
  %68 = getelementptr inbounds nuw %struct.arrayobject, ptr %67, i32 0, i32 1
  %69 = load ptr, ptr %68, align 8, !tbaa !70
  %70 = icmp eq ptr %69, null
  br i1 %70, label %71, label %74

71:                                               ; preds = %63
  %72 = load ptr, ptr %8, align 8, !tbaa !68
  call void @Py_DECREF(ptr noundef %72)
  %73 = call ptr @PyErr_NoMemory()
  store ptr %73, ptr %4, align 8
  store i32 1, ptr %10, align 4
  br label %79

74:                                               ; preds = %63
  br label %75

75:                                               ; preds = %74, %52
  %76 = load ptr, ptr %8, align 8, !tbaa !68
  %77 = getelementptr inbounds nuw %struct.arrayobject, ptr %76, i32 0, i32 5
  store i64 0, ptr %77, align 8, !tbaa !105
  %78 = load ptr, ptr %8, align 8, !tbaa !68
  store ptr %78, ptr %4, align 8
  store i32 1, ptr %10, align 4
  br label %79

79:                                               ; preds = %75, %71, %38, %22, %13
  call void @llvm.lifetime.end.p0(i64 8, ptr %9) #8
  call void @llvm.lifetime.end.p0(i64 8, ptr %8) #8
  %80 = load ptr, ptr %4, align 8
  ret ptr %80
}