; Function Attrs: nounwind uwtable
define internal fastcc ptr @newarrayobject(ptr noundef %0, i64 noundef %1, ptr noundef %2) unnamed_addr #0 {
  %4 = icmp slt i64 %1, 0
  br i1 %4, label %5, label %6

5:                                                ; preds = %3
  tail call void @_PyErr_BadInternalCall(ptr noundef nonnull @.str.55, i32 noundef 638) #11
  br label %44

6:                                                ; preds = %3
  %7 = getelementptr inbounds nuw i8, ptr %2, i64 4
  %8 = load i32, ptr %7, align 4, !tbaa !49
  %9 = sext i32 %8 to i64
  %10 = sdiv i64 9223372036854775807, %9
  %11 = icmp sgt i64 %1, %10
  br i1 %11, label %12, label %14

12:                                               ; preds = %6
  %13 = tail call ptr @PyErr_NoMemory() #11
  br label %44

14:                                               ; preds = %6
  %15 = mul i64 %1, %9
  %16 = getelementptr inbounds nuw i8, ptr %0, i64 304
  %17 = load ptr, ptr %16, align 8, !tbaa !81
  %18 = tail call ptr %17(ptr noundef %0, i64 noundef 0) #11
  %19 = icmp eq ptr %18, null
  br i1 %19, label %44, label %20

20:                                               ; preds = %14
  %21 = getelementptr inbounds nuw i8, ptr %18, i64 40
  store ptr %2, ptr %21, align 8, !tbaa !76
  %22 = getelementptr inbounds nuw i8, ptr %18, i64 32
  store i64 %1, ptr %22, align 8, !tbaa !79
  %23 = getelementptr inbounds nuw i8, ptr %18, i64 48
  store ptr null, ptr %23, align 8, !tbaa !82
  %24 = getelementptr inbounds nuw i8, ptr %18, i64 16
  store i64 %1, ptr %24, align 8, !tbaa !40
  %25 = icmp eq i64 %1, 0
  br i1 %25, label %26, label %28

26:                                               ; preds = %20
  %27 = getelementptr inbounds nuw i8, ptr %18, i64 24
  store ptr null, ptr %27, align 8, !tbaa !53
  br label %42

28:                                               ; preds = %20
  %29 = icmp slt i64 %15, 0
  br i1 %29, label %.thread, label %31

.thread:                                          ; preds = %28
  %30 = getelementptr inbounds nuw i8, ptr %18, i64 24
  store ptr null, ptr %30, align 8, !tbaa !53
  br label %35

31:                                               ; preds = %28
  %32 = tail call ptr @PyMem_Malloc(i64 noundef %15) #11
  %33 = getelementptr inbounds nuw i8, ptr %18, i64 24
  store ptr %32, ptr %33, align 8, !tbaa !53
  %34 = icmp eq ptr %32, null
  br i1 %34, label %35, label %42

35:                                               ; preds = %.thread, %31
  %36 = load i32, ptr %18, align 8, !tbaa !17
  %.not.i = icmp sgt i32 %36, -1
  br i1 %.not.i, label %37, label %Py_DECREF.exit

37:                                               ; preds = %35
  %38 = add nsw i32 %36, -1
  store i32 %38, ptr %18, align 8, !tbaa !17
  %39 = icmp eq i32 %38, 0
  br i1 %39, label %40, label %Py_DECREF.exit

40:                                               ; preds = %37
  tail call void @_Py_Dealloc(ptr noundef nonnull %18) #11
  br label %Py_DECREF.exit

Py_DECREF.exit:                                   ; preds = %35, %37, %40
  %41 = tail call ptr @PyErr_NoMemory() #11
  br label %44

42:                                               ; preds = %31, %26
  %43 = getelementptr inbounds nuw i8, ptr %18, i64 56
  store i64 0, ptr %43, align 8, !tbaa !83
  br label %44

44:                                               ; preds = %14, %42, %Py_DECREF.exit, %12, %5
  %.0 = phi ptr [ null, %5 ], [ %13, %12 ], [ %18, %42 ], [ %41, %Py_DECREF.exit ], [ null, %14 ]
  ret ptr %.0
}